target datalayout = "e-m:e-p270:32:32-p271:32:32-p272:64:64-i64:64-i128:128-f80:128-n8:16:32:64-S128"
target triple = "x86_64-pc-linux-gnu"

%struct.AVTextFormatContext = type { ptr, ptr, ptr, ptr, ptr, ptr, i32, i32, [12 x i32], [12 x [100 x i32]], [12 x ptr], [12 x %struct.AVBPrint], i32, i32, i32, i32, i32, ptr, i32, ptr, i32 }
%struct.AVBPrint = type { ptr, i32, i32, i32, [1 x i8], [1000 x i8] }
%struct.JSONContext = type { ptr, i32, i32, ptr, ptr }
%struct.AVTextFormatSection = type { i32, ptr, i32, [12 x i32], ptr, ptr, ptr, ptr, i32, ptr, ptr, ptr, ptr }
%struct.AVTextWriterContext = type { ptr, ptr, ptr, ptr }
%struct.AVTextWriter = type { ptr, i32, ptr, ptr, ptr, ptr, ptr, ptr }

@.str.7 = private unnamed_addr constant [3 x i8] c",\0A\00", align 1
@.str.10 = private unnamed_addr constant [3 x i8] c"{\0A\00", align 1
@.str.11 = private unnamed_addr constant [4 x i8] c"%*c\00", align 1
@.str.12 = private unnamed_addr constant [9 x i8] c"\22%s\22: [\0A\00", align 1
@.str.13 = private unnamed_addr constant [10 x i8] c"\22%s\22: {%s\00", align 1
@.str.14 = private unnamed_addr constant [4 x i8] c"{%s\00", align 1
@.str.15 = private unnamed_addr constant [13 x i8] c"\22type\22: \22%s\22\00", align 1
@.str.16 = private unnamed_addr constant [36 x i8] c"Invalid section access at level %d\0A\00", align 1

; Function Attrs: inlinehint nounwind uwtable
define internal void @writer_put_str(ptr noundef %0, ptr noundef %1) #4 {
  %3 = alloca ptr, align 8
  %4 = alloca ptr, align 8
  store ptr %0, ptr %3, align 8, !tbaa !4
  store ptr %1, ptr %4, align 8, !tbaa !35
  %5 = load ptr, ptr %3, align 8, !tbaa !4
  %6 = getelementptr inbounds nuw %struct.AVTextFormatContext, ptr %5, i32 0, i32 2
  %7 = load ptr, ptr %6, align 8, !tbaa !38
  %8 = getelementptr inbounds nuw %struct.AVTextWriterContext, ptr %7, i32 0, i32 1
  %9 = load ptr, ptr %8, align 8, !tbaa !39
  %10 = getelementptr inbounds nuw %struct.AVTextWriter, ptr %9, i32 0, i32 6
  %11 = load ptr, ptr %10, align 8, !tbaa !42
  %12 = load ptr, ptr %3, align 8, !tbaa !4
  %13 = getelementptr inbounds nuw %struct.AVTextFormatContext, ptr %12, i32 0, i32 2
  %14 = load ptr, ptr %13, align 8, !tbaa !38
  %15 = load ptr, ptr %4, align 8, !tbaa !35
  call void %11(ptr noundef %14, ptr noundef %15)
  ret void
}

; Function Attrs: inlinehint nounwind uwtable
define internal ptr @tf_get_parent_section(ptr noundef %0, i32 noundef %1) #4 {
  %3 = alloca ptr, align 8
  %4 = alloca ptr, align 8
  %5 = alloca i32, align 4
  store ptr %0, ptr %4, align 8, !tbaa !4
  store i32 %1, ptr %5, align 4, !tbaa !27
  %6 = load i32, ptr %5, align 4, !tbaa !27
  %7 = icmp sle i32 %6, 0
  br i1 %7, label %8, label %9

8:                                                ; preds = %2
  store ptr null, ptr %3, align 8
  br label %14

9:                                                ; preds = %2
  %10 = load ptr, ptr %4, align 8, !tbaa !4
  %11 = load i32, ptr %5, align 4, !tbaa !27
  %12 = sub nsw i32 %11, 1
  %13 = call ptr @tf_get_section(ptr noundef %10, i32 noundef %12)
  store ptr %13, ptr %3, align 8
  br label %14

14:                                               ; preds = %9, %8
  %15 = load ptr, ptr %3, align 8
  ret ptr %15
}

; Function Attrs: inlinehint nounwind uwtable
define internal ptr @tf_get_section(ptr noundef %0, i32 noundef %1) #4 {
  %3 = alloca ptr, align 8
  %4 = alloca ptr, align 8
  %5 = alloca i32, align 4
  store ptr %0, ptr %4, align 8, !tbaa !4
  store i32 %1, ptr %5, align 4, !tbaa !27
  %6 = load ptr, ptr %4, align 8, !tbaa !4
  %7 = icmp ne ptr %6, null
  br i1 %7, label %8, label %22

8:                                                ; preds = %2
  %9 = load i32, ptr %5, align 4, !tbaa !27
  %10 = icmp slt i32 %9, 0
  br i1 %10, label %22, label %11

11:                                               ; preds = %8
  %12 = load i32, ptr %5, align 4, !tbaa !27
  %13 = icmp sge i32 %12, 12
  br i1 %13, label %22, label %14

14:                                               ; preds = %11
  %15 = load ptr, ptr %4, align 8, !tbaa !4
  %16 = getelementptr inbounds nuw %struct.AVTextFormatContext, ptr %15, i32 0, i32 10
  %17 = load i32, ptr %5, align 4, !tbaa !27
  %18 = sext i32 %17 to i64
  %19 = getelementptr inbounds [12 x ptr], ptr %16, i64 0, i64 %18
  %20 = load ptr, ptr %19, align 8, !tbaa !26
  %21 = icmp ne ptr %20, null
  br i1 %21, label %29, label %22

22:                                               ; preds = %14, %11, %8, %2
  %23 = load ptr, ptr %4, align 8, !tbaa !4
  %24 = icmp ne ptr %23, null
  br i1 %24, label %25, label %28

25:                                               ; preds = %22
  %26 = load ptr, ptr %4, align 8, !tbaa !4
  %27 = load i32, ptr %5, align 4, !tbaa !27
  call void (ptr, i32, ptr, ...) @av_log(ptr noundef %26, i32 noundef 16, ptr noundef @.str.16, i32 noundef %27)
  br label %28

28:                                               ; preds = %25, %22
  store ptr null, ptr %3, align 8
  br label %36

29:                                               ; preds = %14
  %30 = load ptr, ptr %4, align 8, !tbaa !4
  %31 = getelementptr inbounds nuw %struct.AVTextFormatContext, ptr %30, i32 0, i32 10
  %32 = load i32, ptr %5, align 4, !tbaa !27
  %33 = sext i32 %32 to i64
  %34 = getelementptr inbounds [12 x ptr], ptr %31, i64 0, i64 %33
  %35 = load ptr, ptr %34, align 8, !tbaa !26
  store ptr %35, ptr %3, align 8
  br label %36

36:                                               ; preds = %29, %28
  %37 = load ptr, ptr %3, align 8
  ret ptr %37
}

; Function Attrs: nounwind uwtable
define internal void @json_print_section_header(ptr noundef %0, ptr noundef %1) #1 {
  %3 = alloca ptr, align 8
  %4 = alloca ptr, align 8
  %5 = alloca ptr, align 8
  %6 = alloca ptr, align 8
  %7 = alloca ptr, align 8
  %8 = alloca %struct.AVBPrint, align 8
  %9 = alloca i32, align 4
  store ptr %0, ptr %3, align 8, !tbaa !4
  store ptr %1, ptr %4, align 8, !tbaa !24
  call void @llvm.lifetime.start.p0(i64 8, ptr %5) #7
  %10 = load ptr, ptr %3, align 8, !tbaa !4
  %11 = load ptr, ptr %3, align 8, !tbaa !4
  %12 = getelementptr inbounds nuw %struct.AVTextFormatContext, ptr %11, i32 0, i32 7
  %13 = load i32, ptr %12, align 4, !tbaa !25
  %14 = call ptr @tf_get_section(ptr noundef %10, i32 noundef %13)
  store ptr %14, ptr %5, align 8, !tbaa !26
  call void @llvm.lifetime.start.p0(i64 8, ptr %6) #7
  %15 = load ptr, ptr %3, align 8, !tbaa !4
  %16 = load ptr, ptr %3, align 8, !tbaa !4
  %17 = getelementptr inbounds nuw %struct.AVTextFormatContext, ptr %16, i32 0, i32 7
  %18 = load i32, ptr %17, align 4, !tbaa !25
  %19 = call ptr @tf_get_parent_section(ptr noundef %15, i32 noundef %18)
  store ptr %19, ptr %6, align 8, !tbaa !26
  call void @llvm.lifetime.start.p0(i64 8, ptr %7) #7
  %20 = load ptr, ptr %3, align 8, !tbaa !4
  %21 = getelementptr inbounds nuw %struct.AVTextFormatContext, ptr %20, i32 0, i32 4
  %22 = load ptr, ptr %21, align 8, !tbaa !9
  store ptr %22, ptr %7, align 8, !tbaa !18
  call void @llvm.lifetime.start.p0(i64 1024, ptr %8) #7
  %23 = load ptr, ptr %5, align 8, !tbaa !26
  %24 = icmp ne ptr %23, null
  br i1 %24, label %26, label %25

25:                                               ; preds = %2
  store i32 1, ptr %9, align 4
  br label %139

26:                                               ; preds = %2
  %27 = load ptr, ptr %3, align 8, !tbaa !4
  %28 = getelementptr inbounds nuw %struct.AVTextFormatContext, ptr %27, i32 0, i32 7
  %29 = load i32, ptr %28, align 4, !tbaa !25
  %30 = icmp ne i32 %29, 0
  br i1 %30, label %31, label %44

31:                                               ; preds = %26
  %32 = load ptr, ptr %3, align 8, !tbaa !4
  %33 = getelementptr inbounds nuw %struct.AVTextFormatContext, ptr %32, i32 0, i32 8
  %34 = load ptr, ptr %3, align 8, !tbaa !4
  %35 = getelementptr inbounds nuw %struct.AVTextFormatContext, ptr %34, i32 0, i32 7
  %36 = load i32, ptr %35, align 4, !tbaa !25
  %37 = sub nsw i32 %36, 1
  %38 = sext i32 %37 to i64
  %39 = getelementptr inbounds [12 x i32], ptr %33, i64 0, i64 %38
  %40 = load i32, ptr %39, align 4, !tbaa !27
  %41 = icmp ne i32 %40, 0
  br i1 %41, label %42, label %44

42:                                               ; preds = %31
  %43 = load ptr, ptr %3, align 8, !tbaa !4
  call void @writer_put_str(ptr noundef %43, ptr noundef @.str.7)
  br label %44

44:                                               ; preds = %42, %31, %26
  %45 = load ptr, ptr %5, align 8, !tbaa !26
  %46 = getelementptr inbounds nuw %struct.AVTextFormatSection, ptr %45, i32 0, i32 2
  %47 = load i32, ptr %46, align 8, !tbaa !28
  %48 = and i32 %47, 1
  %49 = icmp ne i32 %48, 0
  br i1 %49, label %50, label %56

50:                                               ; preds = %44
  %51 = load ptr, ptr %3, align 8, !tbaa !4
  call void @writer_put_str(ptr noundef %51, ptr noundef @.str.10)
  %52 = load ptr, ptr %7, align 8, !tbaa !18
  %53 = getelementptr inbounds nuw %struct.JSONContext, ptr %52, i32 0, i32 1
  %54 = load i32, ptr %53, align 8, !tbaa !31
  %55 = add nsw i32 %54, 1
  store i32 %55, ptr %53, align 8, !tbaa !31
  br label %138

56:                                               ; preds = %44
  call void @av_bprint_init(ptr noundef %8, i32 noundef 1, i32 noundef -1)
  %57 = load ptr, ptr %5, align 8, !tbaa !26
  %58 = getelementptr inbounds nuw %struct.AVTextFormatSection, ptr %57, i32 0, i32 1
  %59 = load ptr, ptr %58, align 8, !tbaa !32
  %60 = load ptr, ptr %3, align 8, !tbaa !4
  %61 = call ptr @json_escape_str(ptr noundef %8, ptr noundef %59, ptr noundef %60)
  %62 = load ptr, ptr %3, align 8, !tbaa !4
  %63 = load ptr, ptr %7, align 8, !tbaa !18
  %64 = getelementptr inbounds nuw %struct.JSONContext, ptr %63, i32 0, i32 1
  %65 = load i32, ptr %64, align 8, !tbaa !31
  %66 = mul nsw i32 %65, 4
  call void (ptr, ptr, ...) @writer_printf(ptr noundef %62, ptr noundef @.str.11, i32 noundef %66, i32 noundef 32)
  %67 = load ptr, ptr %7, align 8, !tbaa !18
  %68 = getelementptr inbounds nuw %struct.JSONContext, ptr %67, i32 0, i32 1
  %69 = load i32, ptr %68, align 8, !tbaa !31
  %70 = add nsw i32 %69, 1
  store i32 %70, ptr %68, align 8, !tbaa !31
  %71 = load ptr, ptr %5, align 8, !tbaa !26
  %72 = getelementptr inbounds nuw %struct.AVTextFormatSection, ptr %71, i32 0, i32 2
  %73 = load i32, ptr %72, align 8, !tbaa !28
  %74 = and i32 %73, 2
  %75 = icmp ne i32 %74, 0
  br i1 %75, label %76, label %80

76:                                               ; preds = %56
  %77 = load ptr, ptr %3, align 8, !tbaa !4
  %78 = getelementptr inbounds nuw %struct.AVBPrint, ptr %8, i32 0, i32 0
  %79 = load ptr, ptr %78, align 8, !tbaa !33
  call void (ptr, ptr, ...) @writer_printf(ptr noundef %77, ptr noundef @.str.12, ptr noundef %79)
  br label %136

80:                                               ; preds = %56
  %81 = load ptr, ptr %6, align 8, !tbaa !26
  %82 = icmp ne ptr %81, null
  br i1 %82, label %83, label %96

83:                                               ; preds = %80
  %84 = load ptr, ptr %6, align 8, !tbaa !26
  %85 = getelementptr inbounds nuw %struct.AVTextFormatSection, ptr %84, i32 0, i32 2
  %86 = load i32, ptr %85, align 8, !tbaa !28
  %87 = and i32 %86, 2
  %88 = icmp ne i32 %87, 0
  br i1 %88, label %96, label %89

89:                                               ; preds = %83
  %90 = load ptr, ptr %3, align 8, !tbaa !4
  %91 = getelementptr inbounds nuw %struct.AVBPrint, ptr %8, i32 0, i32 0
  %92 = load ptr, ptr %91, align 8, !tbaa !33
  %93 = load ptr, ptr %7, align 8, !tbaa !18
  %94 = getelementptr inbounds nuw %struct.JSONContext, ptr %93, i32 0, i32 4
  %95 = load ptr, ptr %94, align 8, !tbaa !23
  call void (ptr, ptr, ...) @writer_printf(ptr noundef %90, ptr noundef @.str.13, ptr noundef %92, ptr noundef %95)
  br label %135

96:                                               ; preds = %83, %80
  %97 = load ptr, ptr %3, align 8, !tbaa !4
  %98 = load ptr, ptr %7, align 8, !tbaa !18
  %99 = getelementptr inbounds nuw %struct.JSONContext, ptr %98, i32 0, i32 4
  %100 = load ptr, ptr %99, align 8, !tbaa !23
  call void (ptr, ptr, ...) @writer_printf(ptr noundef %97, ptr noundef @.str.14, ptr noundef %100)
  %101 = load ptr, ptr %6, align 8, !tbaa !26
  %102 = icmp ne ptr %101, null
  br i1 %102, label %103, label %134

103:                                              ; preds = %96
  %104 = load ptr, ptr %6, align 8, !tbaa !26
  %105 = getelementptr inbounds nuw %struct.AVTextFormatSection, ptr %104, i32 0, i32 2
  %106 = load i32, ptr %105, align 8, !tbaa !28
  %107 = and i32 %106, 16
  %108 = icmp ne i32 %107, 0
  br i1 %108, label %109, label %134

109:                                              ; preds = %103
  %110 = load ptr, ptr %7, align 8, !tbaa !18
  %111 = getelementptr inbounds nuw %struct.JSONContext, ptr %110, i32 0, i32 2
  %112 = load i32, ptr %111, align 4, !tbaa !20
  %113 = icmp ne i32 %112, 0
  br i1 %113, label %120, label %114

114:                                              ; preds = %109
  %115 = load ptr, ptr %3, align 8, !tbaa !4
  %116 = load ptr, ptr %7, align 8, !tbaa !18
  %117 = getelementptr inbounds nuw %struct.JSONContext, ptr %116, i32 0, i32 1
  %118 = load i32, ptr %117, align 8, !tbaa !31
  %119 = mul nsw i32 %118, 4
  call void (ptr, ptr, ...) @writer_printf(ptr noundef %115, ptr noundef @.str.11, i32 noundef %119, i32 noundef 32)
  br label %120

120:                                              ; preds = %114, %109
  %121 = load ptr, ptr %3, align 8, !tbaa !4
  %122 = load ptr, ptr %5, align 8, !tbaa !26
  %123 = getelementptr inbounds nuw %struct.AVTextFormatSection, ptr %122, i32 0, i32 1
  %124 = load ptr, ptr %123, align 8, !tbaa !32
  call void (ptr, ptr, ...) @writer_printf(ptr noundef %121, ptr noundef @.str.15, ptr noundef %124)
  %125 = load ptr, ptr %3, align 8, !tbaa !4
  %126 = getelementptr inbounds nuw %struct.AVTextFormatContext, ptr %125, i32 0, i32 8
  %127 = load ptr, ptr %3, align 8, !tbaa !4
  %128 = getelementptr inbounds nuw %struct.AVTextFormatContext, ptr %127, i32 0, i32 7
  %129 = load i32, ptr %128, align 4, !tbaa !25
  %130 = sext i32 %129 to i64
  %131 = getelementptr inbounds [12 x i32], ptr %126, i64 0, i64 %130
  %132 = load i32, ptr %131, align 4, !tbaa !27
  %133 = add i32 %132, 1
  store i32 %133, ptr %131, align 4, !tbaa !27
  br label %134

134:                                              ; preds = %120, %103, %96
  br label %135

135:                                              ; preds = %134, %89
  br label %136

136:                                              ; preds = %135, %76
  %137 = call i32 @av_bprint_finalize(ptr noundef %8, ptr noundef null)
  br label %138

138:                                              ; preds = %136, %50
  store i32 0, ptr %9, align 4
  br label %139

139:                                              ; preds = %138, %25
  call void @llvm.lifetime.end.p0(i64 1024, ptr %8) #7
  call void @llvm.lifetime.end.p0(i64 8, ptr %7) #7
  call void @llvm.lifetime.end.p0(i64 8, ptr %6) #7
  call void @llvm.lifetime.end.p0(i64 8, ptr %5) #7
  %140 = load i32, ptr %9, align 4
  switch i32 %140, label %142 [
    i32 0, label %141
    i32 1, label %141
  ]

141:                                              ; preds = %139, %139
  ret void

142:                                              ; preds = %139
  unreachable
}