; Function Attrs: nounwind uwtable
define internal void @json_print_section_header(ptr noundef %0, ptr readnone captures(none) %1) #1 {
  %3 = alloca %struct.AVBPrint, align 8
  %4 = getelementptr inbounds nuw i8, ptr %0, i64 52
  %5 = load i32, ptr %4, align 4, !tbaa !20
  %6 = icmp eq ptr %0, null
  %7 = icmp ugt i32 %5, 11
  %or.cond3.i = or i1 %6, %7
  br i1 %or.cond3.i, label %.thread.i, label %8

8:                                                ; preds = %2
  %9 = getelementptr inbounds nuw i8, ptr %0, i64 4904
  %10 = zext nneg i32 %5 to i64
  %11 = getelementptr inbounds nuw [12 x ptr], ptr %9, i64 0, i64 %10
  %12 = load ptr, ptr %11, align 8, !tbaa !21
  %.not.i = icmp eq ptr %12, null
  br i1 %.not.i, label %.thread.i, label %tf_get_section.exit

.thread.i:                                        ; preds = %2, %8
  tail call void (ptr, i32, ptr, ...) @av_log(ptr noundef nonnull %0, i32 noundef 16, ptr noundef nonnull @.str.16, i32 noundef %5) #7
  %.pre = load i32, ptr %4, align 4, !tbaa !20
  br label %tf_get_section.exit

tf_get_section.exit:                              ; preds = %8, %.thread.i
  %13 = phi i32 [ %.pre, %.thread.i ], [ %5, %8 ]
  %.0.i = phi ptr [ null, %.thread.i ], [ %12, %8 ]
  %14 = icmp slt i32 %13, 1
  br i1 %14, label %tf_get_parent_section.exit, label %15

15:                                               ; preds = %tf_get_section.exit
  %16 = add nsw i32 %13, -1
  %17 = icmp samesign ugt i32 %16, 11
  %or.cond3.i.i = or i1 %6, %17
  br i1 %or.cond3.i.i, label %.thread.i.i, label %18

18:                                               ; preds = %15
  %19 = getelementptr inbounds nuw i8, ptr %0, i64 4904
  %20 = zext nneg i32 %16 to i64
  %21 = getelementptr inbounds nuw [12 x ptr], ptr %19, i64 0, i64 %20
  %22 = load ptr, ptr %21, align 8, !tbaa !21
  %.not.i.i = icmp eq ptr %22, null
  br i1 %.not.i.i, label %.thread.i.i, label %tf_get_parent_section.exit

.thread.i.i:                                      ; preds = %15, %18
  tail call void (ptr, i32, ptr, ...) @av_log(ptr noundef nonnull %0, i32 noundef 16, ptr noundef nonnull @.str.16, i32 noundef %16) #7
  br label %tf_get_parent_section.exit

tf_get_parent_section.exit:                       ; preds = %tf_get_section.exit, %18, %.thread.i.i
  %.0.i46 = phi ptr [ null, %tf_get_section.exit ], [ null, %.thread.i.i ], [ %22, %18 ]
  %23 = getelementptr inbounds nuw i8, ptr %0, i64 32
  %24 = load ptr, ptr %23, align 8, !tbaa !4
  call void @llvm.lifetime.start.p0(i64 1024, ptr nonnull %3) #7
  %.not = icmp eq ptr %.0.i, null
  br i1 %.not, label %97, label %25

25:                                               ; preds = %tf_get_parent_section.exit
  %26 = load i32, ptr %4, align 4, !tbaa !20
  %.not37 = icmp eq i32 %26, 0
  br i1 %.not37, label %39, label %27

27:                                               ; preds = %25
  %28 = getelementptr inbounds nuw i8, ptr %0, i64 56
  %29 = add nsw i32 %26, -1
  %30 = sext i32 %29 to i64
  %31 = getelementptr inbounds [12 x i32], ptr %28, i64 0, i64 %30
  %32 = load i32, ptr %31, align 4, !tbaa !22
  %.not38 = icmp eq i32 %32, 0
  br i1 %.not38, label %39, label %33

33:                                               ; preds = %27
  %34 = getelementptr i8, ptr %0, i64 16
  %.val = load ptr, ptr %34, align 8, !tbaa !23
  %35 = getelementptr inbounds nuw i8, ptr %.val, i64 8
  %36 = load ptr, ptr %35, align 8, !tbaa !24
  %37 = getelementptr inbounds nuw i8, ptr %36, i64 48
  %38 = load ptr, ptr %37, align 8, !tbaa !27
  tail call void %38(ptr noundef %.val, ptr noundef nonnull @.str.7) #7
  br label %39

39:                                               ; preds = %33, %27, %25
  %40 = getelementptr inbounds nuw i8, ptr %.0.i, i64 16
  %41 = load i32, ptr %40, align 8, !tbaa !29
  %42 = and i32 %41, 1
  %.not39 = icmp eq i32 %42, 0
  br i1 %.not39, label %52, label %43

43:                                               ; preds = %39
  %44 = getelementptr i8, ptr %0, i64 16
  %.val45 = load ptr, ptr %44, align 8, !tbaa !23
  %45 = getelementptr inbounds nuw i8, ptr %.val45, i64 8
  %46 = load ptr, ptr %45, align 8, !tbaa !24
  %47 = getelementptr inbounds nuw i8, ptr %46, i64 48
  %48 = load ptr, ptr %47, align 8, !tbaa !27
  tail call void %48(ptr noundef %.val45, ptr noundef nonnull @.str.10) #7
  %49 = getelementptr inbounds nuw i8, ptr %24, i64 8
  %50 = load i32, ptr %49, align 8, !tbaa !32
  %51 = add nsw i32 %50, 1
  store i32 %51, ptr %49, align 8, !tbaa !32
  br label %97

52:                                               ; preds = %39
  call void @av_bprint_init(ptr noundef nonnull %3, i32 noundef 1, i32 noundef -1) #7
  %53 = getelementptr inbounds nuw i8, ptr %.0.i, i64 8
  %54 = load ptr, ptr %53, align 8, !tbaa !33
  %55 = call fastcc ptr @json_escape_str(ptr noundef %3, ptr noundef %54, ptr noundef nonnull %0)
  %56 = getelementptr inbounds nuw i8, ptr %24, i64 8
  %57 = load i32, ptr %56, align 8, !tbaa !32
  %58 = shl nsw i32 %57, 2
  call void (ptr, ptr, ...) @writer_printf(ptr noundef nonnull %0, ptr noundef nonnull @.str.11, i32 noundef %58, i32 noundef 32)
  %59 = load i32, ptr %56, align 8, !tbaa !32
  %60 = add nsw i32 %59, 1
  store i32 %60, ptr %56, align 8, !tbaa !32
  %61 = load i32, ptr %40, align 8, !tbaa !29
  %62 = and i32 %61, 2
  %.not40 = icmp eq i32 %62, 0
  br i1 %.not40, label %65, label %63

63:                                               ; preds = %52
  %64 = load ptr, ptr %3, align 8, !tbaa !34
  call void (ptr, ptr, ...) @writer_printf(ptr noundef nonnull %0, ptr noundef nonnull @.str.12, ptr noundef %64)
  br label %95

65:                                               ; preds = %52
  %.not41 = icmp eq ptr %.0.i46, null
  br i1 %.not41, label %.critedge, label %66

66:                                               ; preds = %65
  %67 = getelementptr inbounds nuw i8, ptr %.0.i46, i64 16
  %68 = load i32, ptr %67, align 8, !tbaa !29
  %69 = and i32 %68, 2
  %.not42 = icmp eq i32 %69, 0
  br i1 %.not42, label %70, label %74

70:                                               ; preds = %66
  %71 = load ptr, ptr %3, align 8, !tbaa !34
  %72 = getelementptr inbounds nuw i8, ptr %24, i64 24
  %73 = load ptr, ptr %72, align 8, !tbaa !19
  call void (ptr, ptr, ...) @writer_printf(ptr noundef nonnull %0, ptr noundef nonnull @.str.13, ptr noundef %71, ptr noundef %73)
  br label %95

74:                                               ; preds = %66
  %75 = getelementptr inbounds nuw i8, ptr %24, i64 24
  %76 = load ptr, ptr %75, align 8, !tbaa !19
  call void (ptr, ptr, ...) @writer_printf(ptr noundef nonnull %0, ptr noundef nonnull @.str.14, ptr noundef %76)
  %77 = load i32, ptr %67, align 8, !tbaa !29
  %78 = and i32 %77, 16
  %.not43 = icmp eq i32 %78, 0
  br i1 %.not43, label %95, label %79

79:                                               ; preds = %74
  %80 = getelementptr inbounds nuw i8, ptr %24, i64 12
  %81 = load i32, ptr %80, align 4, !tbaa !16
  %.not44 = icmp eq i32 %81, 0
  br i1 %.not44, label %82, label %85

82:                                               ; preds = %79
  %83 = load i32, ptr %56, align 8, !tbaa !32
  %84 = shl nsw i32 %83, 2
  call void (ptr, ptr, ...) @writer_printf(ptr noundef nonnull %0, ptr noundef nonnull @.str.11, i32 noundef %84, i32 noundef 32)
  br label %85

85:                                               ; preds = %82, %79
  %86 = load ptr, ptr %53, align 8, !tbaa !33
  call void (ptr, ptr, ...) @writer_printf(ptr noundef nonnull %0, ptr noundef nonnull @.str.15, ptr noundef %86)
  %87 = getelementptr inbounds nuw i8, ptr %0, i64 56
  %88 = load i32, ptr %4, align 4, !tbaa !20
  %89 = sext i32 %88 to i64
  %90 = getelementptr inbounds [12 x i32], ptr %87, i64 0, i64 %89
  %91 = load i32, ptr %90, align 4, !tbaa !22
  %92 = add i32 %91, 1
  store i32 %92, ptr %90, align 4, !tbaa !22
  br label %95

.critedge:                                        ; preds = %65
  %93 = getelementptr inbounds nuw i8, ptr %24, i64 24
  %94 = load ptr, ptr %93, align 8, !tbaa !19
  call void (ptr, ptr, ...) @writer_printf(ptr noundef nonnull %0, ptr noundef nonnull @.str.14, ptr noundef %94)
  br label %95

95:                                               ; preds = %.critedge, %70, %85, %74, %63
  %96 = call i32 @av_bprint_finalize(ptr noundef nonnull %3, ptr noundef null) #7
  br label %97

97:                                               ; preds = %43, %95, %tf_get_parent_section.exit
  call void @llvm.lifetime.end.p0(i64 1024, ptr nonnull %3) #7
  ret void
}